target datalayout = "e-m:e-p270:32:32-p271:32:32-p272:64:64-i64:64-i128:128-f80:128-n8:16:32:64-S128"
target triple = "x86_64-pc-linux-gnu"

%struct.dt_undo_tags_t = type { i32, ptr, ptr }

; Function Attrs: nounwind uwtable
define internal void @_undo_tags_free(ptr noundef %0) #0 {
  %2 = alloca ptr, align 8
  %3 = alloca ptr, align 8
  store ptr %0, ptr %2, align 8, !tbaa !74
  call void @llvm.lifetime.start.p0(i64 8, ptr %3) #8
  %4 = load ptr, ptr %2, align 8, !tbaa !74
  store ptr %4, ptr %3, align 8, !tbaa !68
  %5 = load ptr, ptr %3, align 8, !tbaa !68
  %6 = getelementptr inbounds nuw %struct.dt_undo_tags_t, ptr %5, i32 0, i32 1
  %7 = load ptr, ptr %6, align 8, !tbaa !72
  call void @g_list_free(ptr noundef %7)
  %8 = load ptr, ptr %3, align 8, !tbaa !68
  %9 = getelementptr inbounds nuw %struct.dt_undo_tags_t, ptr %8, i32 0, i32 2
  %10 = load ptr, ptr %9, align 8, !tbaa !73
  call void @g_list_free(ptr noundef %10)
  %11 = load ptr, ptr %3, align 8, !tbaa !68
  call void @g_free(ptr noundef %11)
  call void @llvm.lifetime.end.p0(i64 8, ptr %3) #8
  ret void
}