; Function Attrs: nounwind uwtable
define internal void @_undo_tags_free(ptr noundef %0) #0 {
  %2 = getelementptr inbounds nuw i8, ptr %0, i64 8
  %3 = load ptr, ptr %2, align 8, !tbaa !67
  tail call void @g_list_free(ptr noundef %3) #11
  %4 = getelementptr inbounds nuw i8, ptr %0, i64 16
  %5 = load ptr, ptr %4, align 8, !tbaa !68
  tail call void @g_list_free(ptr noundef %5) #11
  tail call void @g_free(ptr noundef %0) #11
  ret void
}